target datalayout = "e-m:e-p270:32:32-p271:32:32-p272:64:64-i64:64-i128:128-f80:128-n8:16:32:64-S128"
target triple = "x86_64-pc-linux-gnu"

%"class.open3d::core::Dtype" = type { i32, i64, [16 x i8] }
%"class.std::__shared_count" = type { ptr }
%"class.pybind11::object" = type { %"class.pybind11::handle" }
%"class.pybind11::handle" = type { ptr }
%"struct.pybind11::detail::void_type" = type { i8 }
%"struct.std::_Head_base.357" = type { %"struct.pybind11::detail::type_caster.358" }
%"struct.pybind11::detail::type_caster.358" = type { %"class.pybind11::detail::type_caster_base", %"class.std::unique_ptr.359" }
%"class.pybind11::detail::type_caster_base" = type { %"class.pybind11::detail::type_caster_generic" }
%"class.pybind11::detail::type_caster_generic" = type { ptr, ptr, ptr }
%"class.std::unique_ptr.359" = type { %"struct.std::__uniq_ptr_data.360" }
%"struct.std::__uniq_ptr_data.360" = type { %"class.std::__uniq_ptr_impl.361" }
%"class.std::__uniq_ptr_impl.361" = type { %"class.std::tuple.362" }
%"class.std::tuple.362" = type { %"struct.std::_Tuple_impl.363" }
%"struct.std::_Tuple_impl.363" = type { %"struct.std::_Head_base.366" }
%"struct.std::_Head_base.366" = type { ptr }
%"class.open3d::core::Tensor" = type { %"class.open3d::core::IsDevice", %"class.open3d::core::SizeVector", %"class.open3d::core::SizeVector", ptr, %"class.open3d::core::Dtype", %"class.std::shared_ptr.367" }
%"class.open3d::core::IsDevice" = type { ptr }
%"class.open3d::core::SizeVector" = type { %"class.open3d::core::SmallVector" }
%"class.open3d::core::SmallVector" = type { %"class.open3d::core::SmallVectorImpl", %"struct.open3d::core::SmallVectorStorage" }
%"class.open3d::core::SmallVectorImpl" = type { %"class.open3d::core::SmallVectorTemplateBase" }
%"class.open3d::core::SmallVectorTemplateBase" = type { %"class.open3d::core::SmallVectorTemplateCommon" }
%"class.open3d::core::SmallVectorTemplateCommon" = type { %"class.open3d::core::SmallVectorBase" }
%"class.open3d::core::SmallVectorBase" = type { ptr, i32, i32 }
%"struct.open3d::core::SmallVectorStorage" = type { [32 x i8] }
%"class.std::shared_ptr.367" = type { %"class.std::__shared_ptr.368" }
%"class.std::__shared_ptr.368" = type { ptr, %"class.std::__shared_count" }
%"class.open3d::core::TensorKey" = type { %"class.std::shared_ptr.371" }
%"class.std::shared_ptr.371" = type { %"class.std::__shared_ptr.372" }
%"class.std::__shared_ptr.372" = type { ptr, %"class.std::__shared_count" }
%"class.pybind11::detail::argument_loader.556" = type { %"class.std::tuple.557" }
%"class.std::tuple.557" = type { %"struct.std::_Tuple_impl.558" }
%"struct.std::_Tuple_impl.558" = type { %"struct.std::_Tuple_impl.559", %"struct.std::_Head_base.357" }
%"struct.std::_Tuple_impl.559" = type { %"struct.std::_Head_base.560" }
%"struct.std::_Head_base.560" = type { %"class.pybind11::detail::type_caster.561" }
%"class.pybind11::detail::type_caster.561" = type { %"struct.pybind11::detail::pyobject_caster.562" }
%"struct.pybind11::detail::pyobject_caster.562" = type { %"class.pybind11::array" }
%"class.pybind11::array" = type { %"class.pybind11::buffer" }
%"class.pybind11::buffer" = type { %"class.pybind11::object" }

@_ZTIN8pybind1120reference_cast_errorE = linkonce_odr hidden constant { ptr, ptr, ptr } { ptr getelementptr inbounds (ptr, ptr @_ZTVN10__cxxabiv120__si_class_type_infoE, i64 2), ptr @_ZTSN8pybind1120reference_cast_errorE, ptr @_ZTIN8pybind1117builtin_exceptionE }, comdat, align 8

; Function Attrs: mustprogress nounwind ssp uwtable
define linkonce_odr hidden noundef nonnull align 8 dereferenceable(8) ptr @_ZNSt10_Head_baseILm1EN8pybind116detail11type_casterINS0_5arrayEvEELb0EE7_M_headERS5_(ptr noundef nonnull align 8 dereferenceable(8) %0) #5 comdat align 2 {
  %2 = alloca ptr, align 8
  store ptr %0, ptr %2, align 8, !tbaa !3984
  %3 = load ptr, ptr %2, align 8, !tbaa !3984
  %4 = getelementptr inbounds nuw %"struct.std::_Head_base.560", ptr %3, i32 0, i32 0
  ret ptr %4
}

; Function Attrs: mustprogress nounwind ssp uwtable
define linkonce_odr hidden noundef nonnull align 8 dereferenceable(32) ptr @_ZNSt10_Head_baseILm0EN8pybind116detail11type_casterIN6open3d4core6TensorEvEELb0EE7_M_headERS7_(ptr noundef nonnull align 8 dereferenceable(32) %0) #5 comdat align 2 {
  %2 = alloca ptr, align 8
  store ptr %0, ptr %2, align 8, !tbaa !2624
  %3 = load ptr, ptr %2, align 8, !tbaa !2624
  %4 = getelementptr inbounds nuw %"struct.std::_Head_base.357", ptr %3, i32 0, i32 0
  ret ptr %4
}

; Function Attrs: mustprogress nounwind ssp uwtable
define linkonce_odr hidden noundef nonnull align 8 dereferenceable(8) ptr @_ZNSt11_Tuple_implILm1EJN8pybind116detail11type_casterINS0_5arrayEvEEEE7_M_headERS5_(ptr noundef nonnull align 8 dereferenceable(8) %0) #5 comdat align 2 {
  %2 = alloca ptr, align 8
  store ptr %0, ptr %2, align 8, !tbaa !3982
  %3 = load ptr, ptr %2, align 8, !tbaa !3982
  %4 = call noundef nonnull align 8 dereferenceable(8) ptr @_ZNSt10_Head_baseILm1EN8pybind116detail11type_casterINS0_5arrayEvEELb0EE7_M_headERS5_(ptr noundef nonnull align 8 dereferenceable(8) %3) #25
  ret ptr %4
}

; Function Attrs: mustprogress nounwind ssp uwtable
define linkonce_odr hidden noundef nonnull align 8 dereferenceable(32) ptr @_ZNSt11_Tuple_implILm0EJN8pybind116detail11type_casterIN6open3d4core6TensorEvEENS2_INS0_5arrayEvEEEE7_M_headERS9_(ptr noundef nonnull align 8 dereferenceable(40) %0) #5 comdat align 2 {
  %2 = alloca ptr, align 8
  store ptr %0, ptr %2, align 8, !tbaa !3980
  %3 = load ptr, ptr %2, align 8, !tbaa !3980
  %4 = getelementptr inbounds i8, ptr %3, i64 8
  %5 = call noundef nonnull align 8 dereferenceable(32) ptr @_ZNSt10_Head_baseILm0EN8pybind116detail11type_casterIN6open3d4core6TensorEvEELb0EE7_M_headERS7_(ptr noundef nonnull align 8 dereferenceable(32) %4) #25
  ret ptr %5
}

; Function Attrs: mustprogress nounwind ssp uwtable
define linkonce_odr hidden noundef nonnull align 8 dereferenceable(8) ptr @_ZN8pybind116detail15pyobject_casterINS_5arrayEEcvRS2_Ev(ptr noundef nonnull align 8 dereferenceable(8) %0) #5 comdat align 2 !type !4057 {
  %2 = alloca ptr, align 8
  store ptr %0, ptr %2, align 8, !tbaa !3988
  %3 = load ptr, ptr %2, align 8
  %4 = getelementptr inbounds nuw %"struct.pybind11::detail::pyobject_caster.562", ptr %3, i32 0, i32 0
  ret ptr %4
}

; Function Attrs: mustprogress nounwind ssp uwtable
define linkonce_odr hidden noundef nonnull align 8 dereferenceable(8) ptr @_ZSt12__get_helperILm1EN8pybind116detail11type_casterINS0_5arrayEvEEJEERT0_RSt11_Tuple_implIXT_EJS5_DpT1_EE(ptr noundef nonnull align 8 dereferenceable(8) %0) #5 comdat {
  %2 = alloca ptr, align 8
  store ptr %0, ptr %2, align 8, !tbaa !3982
  %3 = load ptr, ptr %2, align 8, !tbaa !3982
  %4 = call noundef nonnull align 8 dereferenceable(8) ptr @_ZNSt11_Tuple_implILm1EJN8pybind116detail11type_casterINS0_5arrayEvEEEE7_M_headERS5_(ptr noundef nonnull align 8 dereferenceable(8) %3) #25
  ret ptr %4
}

; Function Attrs: mustprogress ssp uwtable
define linkonce_odr hidden noundef nonnull align 8 dereferenceable(160) ptr @_ZN8pybind116detail16type_caster_baseIN6open3d4core6TensorEEcvRS4_Ev(ptr noundef nonnull align 8 dereferenceable(24) %0) #4 comdat align 2 personality ptr @__gxx_personality_v0 !type !3754 {
  %2 = alloca ptr, align 8
  %3 = alloca ptr, align 8
  %4 = alloca i32, align 4
  store ptr %0, ptr %2, align 8, !tbaa !2630
  %5 = load ptr, ptr %2, align 8
  %6 = getelementptr inbounds nuw %"class.pybind11::detail::type_caster_generic", ptr %5, i32 0, i32 2
  %7 = load ptr, ptr %6, align 8, !tbaa !2639
  %8 = icmp ne ptr %7, null
  br i1 %8, label %16, label %9

9:                                                ; preds = %1
  %10 = call ptr @__cxa_allocate_exception(i64 16) #25
  invoke void @_ZN8pybind1120reference_cast_errorC2Ev(ptr noundef nonnull align 8 dereferenceable(16) %10)
          to label %11 unwind label %12

11:                                               ; preds = %9
  call void @__cxa_throw(ptr %10, ptr @_ZTIN8pybind1120reference_cast_errorE, ptr @_ZNSt13runtime_errorD2Ev) #35
  unreachable

12:                                               ; preds = %9
  %13 = landingpad { ptr, i32 }
          cleanup
  %14 = extractvalue { ptr, i32 } %13, 0
  store ptr %14, ptr %3, align 8
  %15 = extractvalue { ptr, i32 } %13, 1
  store i32 %15, ptr %4, align 4
  call void @__cxa_free_exception(ptr %10) #25
  br label %19

16:                                               ; preds = %1
  %17 = getelementptr inbounds nuw %"class.pybind11::detail::type_caster_generic", ptr %5, i32 0, i32 2
  %18 = load ptr, ptr %17, align 8, !tbaa !2639
  ret ptr %18

19:                                               ; preds = %12
  %20 = load ptr, ptr %3, align 8
  %21 = load i32, ptr %4, align 4
  %22 = insertvalue { ptr, i32 } poison, ptr %20, 0
  %23 = insertvalue { ptr, i32 } %22, i32 %21, 1
  resume { ptr, i32 } %23
}

; Function Attrs: mustprogress nounwind ssp uwtable
define linkonce_odr hidden noundef nonnull align 8 dereferenceable(32) ptr @_ZSt12__get_helperILm0EN8pybind116detail11type_casterIN6open3d4core6TensorEvEEJNS2_INS0_5arrayEvEEEERT0_RSt11_Tuple_implIXT_EJS9_DpT1_EE(ptr noundef nonnull align 8 dereferenceable(40) %0) #5 comdat {
  %2 = alloca ptr, align 8
  store ptr %0, ptr %2, align 8, !tbaa !3980
  %3 = load ptr, ptr %2, align 8, !tbaa !3980
  %4 = call noundef nonnull align 8 dereferenceable(32) ptr @_ZNSt11_Tuple_implILm0EJN8pybind116detail11type_casterIN6open3d4core6TensorEvEENS2_INS0_5arrayEvEEEE7_M_headERS9_(ptr noundef nonnull align 8 dereferenceable(40) %3) #25
  ret ptr %4
}

; Function Attrs: inlinehint mustprogress ssp uwtable
define internal void @"_ZZN6open3d4coreL14pybind_getitemERN8pybind116class_INS0_6TensorEJEEEENK3$_3clERKS3_RKNS1_5arrayE"(ptr dead_on_unwind noalias writable sret(%"class.open3d::core::Tensor") align 8 %0, ptr noundef nonnull align 1 dereferenceable(1) %1, ptr noundef nonnull align 8 dereferenceable(160) %2, ptr noundef nonnull align 8 dereferenceable(8) %3) #9 align 2 personality ptr @__gxx_personality_v0 !type !4055 {
  %5 = alloca ptr, align 8
  %6 = alloca ptr, align 8
  %7 = alloca ptr, align 8
  %8 = alloca ptr, align 8
  %9 = alloca %"class.open3d::core::TensorKey", align 8
  %10 = alloca ptr, align 8
  %11 = alloca i32, align 4
  store ptr %0, ptr %5, align 8
  store ptr %1, ptr %6, align 8, !tbaa !165
  store ptr %2, ptr %7, align 8, !tbaa !2616
  store ptr %3, ptr %8, align 8, !tbaa !3990
  %12 = load ptr, ptr %7, align 8, !tbaa !2616
  call void @llvm.lifetime.start.p0(i64 16, ptr %9) #25
  %13 = load ptr, ptr %8, align 8, !tbaa !3990
  call void @_ZN6open3d4coreL11ToTensorKeyERKN8pybind115arrayE(ptr dead_on_unwind writable sret(%"class.open3d::core::TensorKey") align 8 %9, ptr noundef nonnull align 8 dereferenceable(8) %13)
  invoke void @_ZNK6open3d4core6Tensor7GetItemERKNS0_9TensorKeyE(ptr dead_on_unwind writable sret(%"class.open3d::core::Tensor") align 8 %0, ptr noundef nonnull align 8 dereferenceable(160) %12, ptr noundef nonnull align 8 dereferenceable(16) %9)
          to label %14 unwind label %15

14:                                               ; preds = %4
  call void @_ZN6open3d4core9TensorKeyD2Ev(ptr noundef nonnull align 8 dereferenceable(16) %9) #25
  call void @llvm.lifetime.end.p0(i64 16, ptr %9) #25
  ret void

15:                                               ; preds = %4
  %16 = landingpad { ptr, i32 }
          cleanup
  %17 = extractvalue { ptr, i32 } %16, 0
  store ptr %17, ptr %10, align 8
  %18 = extractvalue { ptr, i32 } %16, 1
  store i32 %18, ptr %11, align 4
  call void @_ZN6open3d4core9TensorKeyD2Ev(ptr noundef nonnull align 8 dereferenceable(16) %9) #25
  call void @llvm.lifetime.end.p0(i64 16, ptr %9) #25
  br label %19

19:                                               ; preds = %15
  %20 = load ptr, ptr %10, align 8
  %21 = load i32, ptr %11, align 4
  %22 = insertvalue { ptr, i32 } poison, ptr %20, 0
  %23 = insertvalue { ptr, i32 } %22, i32 %21, 1
  resume { ptr, i32 } %23
}

; Function Attrs: mustprogress ssp uwtable
define linkonce_odr hidden noundef nonnull align 8 dereferenceable(8) ptr @_ZN8pybind116detail7cast_opIRKNS_5arrayEEENS0_11type_casterINS0_14intrinsic_typeIT_E4typeEvE12cast_op_typeINSt20add_rvalue_referenceIS7_E4typeEEEOSA_(ptr noundef nonnull align 8 dereferenceable(8) %0) #4 comdat {
  %2 = alloca ptr, align 8
  store ptr %0, ptr %2, align 8, !tbaa !3986
  %3 = load ptr, ptr %2, align 8, !tbaa !3986
  %4 = call noundef nonnull align 8 dereferenceable(8) ptr @_ZN8pybind116detail15pyobject_casterINS_5arrayEEcvRS2_Ev(ptr noundef nonnull align 8 dereferenceable(8) %3)
  ret ptr %4
}

; Function Attrs: mustprogress nounwind ssp uwtable
define linkonce_odr hidden noundef nonnull align 8 dereferenceable(8) ptr @_ZSt3getILm1EJN8pybind116detail11type_casterIN6open3d4core6TensorEvEENS2_INS0_5arrayEvEEEERNSt13tuple_elementIXT_ESt5tupleIJDpT0_EEE4typeERSD_(ptr noundef nonnull align 8 dereferenceable(40) %0) #5 comdat {
  %2 = alloca ptr, align 8
  store ptr %0, ptr %2, align 8, !tbaa !3978
  %3 = load ptr, ptr %2, align 8, !tbaa !3978
  %4 = call noundef nonnull align 8 dereferenceable(8) ptr @_ZSt12__get_helperILm1EN8pybind116detail11type_casterINS0_5arrayEvEEJEERT0_RSt11_Tuple_implIXT_EJS5_DpT1_EE(ptr noundef nonnull align 8 dereferenceable(8) %3) #25
  ret ptr %4
}

; Function Attrs: mustprogress ssp uwtable
define linkonce_odr hidden noundef nonnull align 8 dereferenceable(160) ptr @_ZN8pybind116detail7cast_opIRKN6open3d4core6TensorEEENS0_11type_casterINS0_14intrinsic_typeIT_E4typeEvE12cast_op_typeINSt20add_rvalue_referenceIS9_E4typeEEEOSC_(ptr noundef nonnull align 8 dereferenceable(32) %0) #4 comdat {
  %2 = alloca ptr, align 8
  store ptr %0, ptr %2, align 8, !tbaa !2628
  %3 = load ptr, ptr %2, align 8, !tbaa !2628
  %4 = call noundef nonnull align 8 dereferenceable(160) ptr @_ZN8pybind116detail16type_caster_baseIN6open3d4core6TensorEEcvRS4_Ev(ptr noundef nonnull align 8 dereferenceable(24) %3)
  ret ptr %4
}

; Function Attrs: mustprogress nounwind ssp uwtable
define linkonce_odr hidden noundef nonnull align 8 dereferenceable(32) ptr @_ZSt3getILm0EJN8pybind116detail11type_casterIN6open3d4core6TensorEvEENS2_INS0_5arrayEvEEEERNSt13tuple_elementIXT_ESt5tupleIJDpT0_EEE4typeERSD_(ptr noundef nonnull align 8 dereferenceable(40) %0) #5 comdat {
  %2 = alloca ptr, align 8
  store ptr %0, ptr %2, align 8, !tbaa !3978
  %3 = load ptr, ptr %2, align 8, !tbaa !3978
  %4 = call noundef nonnull align 8 dereferenceable(32) ptr @_ZSt12__get_helperILm0EN8pybind116detail11type_casterIN6open3d4core6TensorEvEEJNS2_INS0_5arrayEvEEEERT0_RSt11_Tuple_implIXT_EJS9_DpT1_EE(ptr noundef nonnull align 8 dereferenceable(40) %3) #25
  ret ptr %4
}

; Function Attrs: mustprogress ssp uwtable
define internal void @"_ZNO8pybind116detail15argument_loaderIJRKN6open3d4core6TensorERKNS_5arrayEEE9call_implIS4_RZNS3_L14pybind_getitemERNS_6class_IS4_JEEEE3$_3JLm0ELm1EENS0_9void_typeEEET_OT0_St16integer_sequenceImJXspT1_EEEOT2_"(ptr dead_on_unwind noalias writable sret(%"class.open3d::core::Tensor") align 8 %0, ptr noundef nonnull align 8 dereferenceable(40) %1, ptr noundef nonnull align 1 dereferenceable(1) %2, ptr noundef nonnull align 1 dereferenceable(1) %3) #4 align 2 !type !4053 {
  %5 = alloca ptr, align 8
  %6 = alloca ptr, align 8
  %7 = alloca ptr, align 8
  %8 = alloca ptr, align 8
  store ptr %0, ptr %5, align 8
  store ptr %1, ptr %6, align 8, !tbaa !3973
  store ptr %2, ptr %7, align 8, !tbaa !165
  store ptr %3, ptr %8, align 8, !tbaa !1310
  %9 = load ptr, ptr %6, align 8
  %10 = load ptr, ptr %7, align 8, !tbaa !165
  %11 = getelementptr inbounds nuw %"class.pybind11::detail::argument_loader.556", ptr %9, i32 0, i32 0
  %12 = call noundef nonnull align 8 dereferenceable(32) ptr @_ZSt3getILm0EJN8pybind116detail11type_casterIN6open3d4core6TensorEvEENS2_INS0_5arrayEvEEEERNSt13tuple_elementIXT_ESt5tupleIJDpT0_EEE4typeERSD_(ptr noundef nonnull align 8 dereferenceable(40) %11) #25
  %13 = call noundef nonnull align 8 dereferenceable(160) ptr @_ZN8pybind116detail7cast_opIRKN6open3d4core6TensorEEENS0_11type_casterINS0_14intrinsic_typeIT_E4typeEvE12cast_op_typeINSt20add_rvalue_referenceIS9_E4typeEEEOSC_(ptr noundef nonnull align 8 dereferenceable(32) %12)
  %14 = getelementptr inbounds nuw %"class.pybind11::detail::argument_loader.556", ptr %9, i32 0, i32 0
  %15 = call noundef nonnull align 8 dereferenceable(8) ptr @_ZSt3getILm1EJN8pybind116detail11type_casterIN6open3d4core6TensorEvEENS2_INS0_5arrayEvEEEERNSt13tuple_elementIXT_ESt5tupleIJDpT0_EEE4typeERSD_(ptr noundef nonnull align 8 dereferenceable(40) %14) #25
  %16 = call noundef nonnull align 8 dereferenceable(8) ptr @_ZN8pybind116detail7cast_opIRKNS_5arrayEEENS0_11type_casterINS0_14intrinsic_typeIT_E4typeEvE12cast_op_typeINSt20add_rvalue_referenceIS7_E4typeEEEOSA_(ptr noundef nonnull align 8 dereferenceable(8) %15)
  call void @"_ZZN6open3d4coreL14pybind_getitemERN8pybind116class_INS0_6TensorEJEEEENK3$_3clERKS3_RKNS1_5arrayE"(ptr dead_on_unwind writable sret(%"class.open3d::core::Tensor") align 8 %0, ptr noundef nonnull align 1 dereferenceable(1) %10, ptr noundef nonnull align 8 dereferenceable(160) %13, ptr noundef nonnull align 8 dereferenceable(8) %16)
  ret void
}

; Function Attrs: mustprogress ssp uwtable
define internal void @"_ZNO8pybind116detail15argument_loaderIJRKN6open3d4core6TensorERKNS_5arrayEEE4callIS4_NS0_9void_typeERZNS3_L14pybind_getitemERNS_6class_IS4_JEEEE3$_3EENSt9enable_ifIXntsr3std7is_voidIT_EE5valueESJ_E4typeEOT1_"(ptr dead_on_unwind noalias writable sret(%"class.open3d::core::Tensor") align 8 %0, ptr noundef nonnull align 8 dereferenceable(40) %1, ptr noundef nonnull align 1 dereferenceable(1) %2) #4 align 2 !type !3976 {
  %4 = alloca ptr, align 8
  %5 = alloca ptr, align 8
  %6 = alloca ptr, align 8
  %7 = alloca %"struct.pybind11::detail::void_type", align 1
  store ptr %0, ptr %4, align 8
  store ptr %1, ptr %5, align 8, !tbaa !3973
  store ptr %2, ptr %6, align 8, !tbaa !165
  %8 = load ptr, ptr %5, align 8
  %9 = load ptr, ptr %6, align 8, !tbaa !165
  call void @llvm.lifetime.start.p0(i64 1, ptr %7) #25
  call void @"_ZNO8pybind116detail15argument_loaderIJRKN6open3d4core6TensorERKNS_5arrayEEE9call_implIS4_RZNS3_L14pybind_getitemERNS_6class_IS4_JEEEE3$_3JLm0ELm1EENS0_9void_typeEEET_OT0_St16integer_sequenceImJXspT1_EEEOT2_"(ptr dead_on_unwind writable sret(%"class.open3d::core::Tensor") align 8 %0, ptr noundef nonnull align 8 dereferenceable(40) %8, ptr noundef nonnull align 1 dereferenceable(1) %9, ptr noundef nonnull align 1 dereferenceable(1) %7)
  call void @llvm.lifetime.end.p0(i64 1, ptr %7) #25
  ret void
}