; Function Attrs: mustprogress ssp uwtable
define internal fastcc void @"_ZNO8pybind116detail15argument_loaderIJRKN6open3d4core6TensorERKNS_5arrayEEE4callIS4_NS0_9void_typeERZNS3_L14pybind_getitemERNS_6class_IS4_JEEEE3$_3EENSt9enable_ifIXntsr3std7is_voidIT_EE5valueESJ_E4typeEOT1_"(ptr dead_on_unwind noalias nonnull writable align 8 %0, i64 %.0.val, ptr %.24.val) unnamed_addr #5 align 2 personality ptr @__gxx_personality_v0 !type !1950 {
  %2 = alloca %"class.open3d::core::TensorKey", align 8
  %.not.i.i.i = icmp eq ptr %.24.val, null
  br i1 %.not.i.i.i, label %3, label %_ZN8pybind116detail7cast_opIRKN6open3d4core6TensorEEENS0_11type_casterINS0_14intrinsic_typeIT_E4typeEvE12cast_op_typeINSt20add_rvalue_referenceIS9_E4typeEEEOSC_.exit.i

3:                                                ; preds = %1
  %4 = tail call ptr @__cxa_allocate_exception(i64 16) #33, !noalias !1952
  invoke void @_ZN8pybind1120reference_cast_errorC2Ev(ptr noundef nonnull align 8 dereferenceable(16) %4)
          to label %5 unwind label %6, !noalias !1952

5:                                                ; preds = %3
  tail call void @__cxa_throw(ptr nonnull %4, ptr nonnull @_ZTIN8pybind1120reference_cast_errorE, ptr nonnull @_ZNSt13runtime_errorD2Ev) #35, !noalias !1952
  unreachable

common.resume.i:                                  ; preds = %32, %6
  %common.resume.op.i = phi { ptr, i32 } [ %7, %6 ], [ %33, %32 ]
  resume { ptr, i32 } %common.resume.op.i

6:                                                ; preds = %3
  %7 = landingpad { ptr, i32 }
          cleanup
  tail call void @__cxa_free_exception(ptr nonnull %4) #33, !noalias !1952
  br label %common.resume.i

_ZN8pybind116detail7cast_opIRKN6open3d4core6TensorEEENS0_11type_casterINS0_14intrinsic_typeIT_E4typeEvE12cast_op_typeINSt20add_rvalue_referenceIS9_E4typeEEEOSC_.exit.i: ; preds = %1
  call void @llvm.lifetime.start.p0(i64 16, ptr nonnull %2) #33, !noalias !1955
  call fastcc void @_ZN6open3d4coreL11ToTensorKeyERKN8pybind115arrayE(ptr dead_on_unwind noalias writable align 8 %2, i64 %.0.val), !noalias !1955
  invoke void @_ZNK6open3d4core6Tensor7GetItemERKNS0_9TensorKeyE(ptr dead_on_unwind nonnull writable sret(%"class.open3d::core::Tensor") align 8 %0, ptr noundef nonnull align 8 dereferenceable(160) %.24.val, ptr noundef nonnull align 8 dereferenceable(16) %2)
          to label %8 unwind label %32

8:                                                ; preds = %_ZN8pybind116detail7cast_opIRKN6open3d4core6TensorEEENS0_11type_casterINS0_14intrinsic_typeIT_E4typeEvE12cast_op_typeINSt20add_rvalue_referenceIS9_E4typeEEEOSC_.exit.i
  %9 = getelementptr inbounds nuw i8, ptr %2, i64 8
  %10 = load ptr, ptr %9, align 8, !tbaa !294, !noalias !1955
  %.not.i.i.i.i.i = icmp eq ptr %10, null
  br i1 %.not.i.i.i.i.i, label %"_ZNO8pybind116detail15argument_loaderIJRKN6open3d4core6TensorERKNS_5arrayEEE9call_implIS4_RZNS3_L14pybind_getitemERNS_6class_IS4_JEEEE3$_3JLm0ELm1EENS0_9void_typeEEET_OT0_St16integer_sequenceImJXspT1_EEEOT2_.exit", label %11

11:                                               ; preds = %8
  %12 = getelementptr inbounds nuw i8, ptr %10, i64 8
  %13 = load atomic i64, ptr %12 acquire, align 8
  %14 = icmp eq i64 %13, 4294967297
  %15 = trunc i64 %13 to i32
  br i1 %14, label %16, label %24

16:                                               ; preds = %11
  store i32 0, ptr %12, align 8, !tbaa !295
  %17 = getelementptr inbounds nuw i8, ptr %10, i64 12
  store i32 0, ptr %17, align 4, !tbaa !297
  %18 = load ptr, ptr %10, align 8, !tbaa !292
  %19 = getelementptr inbounds nuw i8, ptr %18, i64 16
  %20 = load ptr, ptr %19, align 8
  call void %20(ptr noundef nonnull align 8 dereferenceable(16) %10) #33
  %21 = load ptr, ptr %10, align 8, !tbaa !292
  %22 = getelementptr inbounds nuw i8, ptr %21, i64 24
  %23 = load ptr, ptr %22, align 8
  call void %23(ptr noundef nonnull align 8 dereferenceable(16) %10) #33
  br label %"_ZNO8pybind116detail15argument_loaderIJRKN6open3d4core6TensorERKNS_5arrayEEE9call_implIS4_RZNS3_L14pybind_getitemERNS_6class_IS4_JEEEE3$_3JLm0ELm1EENS0_9void_typeEEET_OT0_St16integer_sequenceImJXspT1_EEEOT2_.exit"

24:                                               ; preds = %11
  %25 = load i8, ptr @__libc_single_threaded, align 1, !tbaa !136, !noalias !1955
  %.not.i.i.i.i.i.i = icmp eq i8 %25, 0
  br i1 %.not.i.i.i.i.i.i, label %28, label %26

26:                                               ; preds = %24
  %27 = add nsw i32 %15, -1
  store i32 %27, ptr %12, align 4, !tbaa !298
  br label %_ZN9__gnu_cxx27__exchange_and_add_dispatchEPii.exit.i.i.i.i.i.i

28:                                               ; preds = %24
  %29 = atomicrmw volatile add ptr %12, i32 -1 acq_rel, align 4
  br label %_ZN9__gnu_cxx27__exchange_and_add_dispatchEPii.exit.i.i.i.i.i.i

_ZN9__gnu_cxx27__exchange_and_add_dispatchEPii.exit.i.i.i.i.i.i: ; preds = %28, %26
  %.0.i.i.i.i.i.i.i = phi i32 [ %15, %26 ], [ %29, %28 ]
  %30 = icmp eq i32 %.0.i.i.i.i.i.i.i, 1
  br i1 %30, label %31, label %"_ZNO8pybind116detail15argument_loaderIJRKN6open3d4core6TensorERKNS_5arrayEEE9call_implIS4_RZNS3_L14pybind_getitemERNS_6class_IS4_JEEEE3$_3JLm0ELm1EENS0_9void_typeEEET_OT0_St16integer_sequenceImJXspT1_EEEOT2_.exit", !prof !299

31:                                               ; preds = %_ZN9__gnu_cxx27__exchange_and_add_dispatchEPii.exit.i.i.i.i.i.i
  call void @_ZNSt16_Sp_counted_baseILN9__gnu_cxx12_Lock_policyE2EE24_M_release_last_use_coldEv(ptr noundef nonnull align 8 dereferenceable(16) %10) #33
  br label %"_ZNO8pybind116detail15argument_loaderIJRKN6open3d4core6TensorERKNS_5arrayEEE9call_implIS4_RZNS3_L14pybind_getitemERNS_6class_IS4_JEEEE3$_3JLm0ELm1EENS0_9void_typeEEET_OT0_St16integer_sequenceImJXspT1_EEEOT2_.exit"

32:                                               ; preds = %_ZN8pybind116detail7cast_opIRKN6open3d4core6TensorEEENS0_11type_casterINS0_14intrinsic_typeIT_E4typeEvE12cast_op_typeINSt20add_rvalue_referenceIS9_E4typeEEEOSC_.exit.i
  %33 = landingpad { ptr, i32 }
          cleanup
  call void @_ZN6open3d4core9TensorKeyD2Ev(ptr noundef nonnull align 8 dereferenceable(16) %2) #33
  call void @llvm.lifetime.end.p0(i64 16, ptr nonnull %2) #33, !noalias !1955
  br label %common.resume.i

"_ZNO8pybind116detail15argument_loaderIJRKN6open3d4core6TensorERKNS_5arrayEEE9call_implIS4_RZNS3_L14pybind_getitemERNS_6class_IS4_JEEEE3$_3JLm0ELm1EENS0_9void_typeEEET_OT0_St16integer_sequenceImJXspT1_EEEOT2_.exit": ; preds = %8, %16, %_ZN9__gnu_cxx27__exchange_and_add_dispatchEPii.exit.i.i.i.i.i.i, %31
  call void @llvm.lifetime.end.p0(i64 16, ptr nonnull %2) #33, !noalias !1955
  ret void
}